#include <math.h>
#include <stdio.h>
#include <stdlib.h>
#include <string.h>


int main()
{
	int i, j, n, left_i=-1, left_j, right_i, right_j, num, temp;
	
	scanf("%d", &n);
	for(i=0; i<n; i++){
		num=0;
		for(j=0; j<n; j++){
			scanf("%d", &temp);
			if(temp==0){
				num++;
				if(num==1&&left_i<0){
					left_i=i;
					left_j=j;
				}
				else{
					right_i=i;
					right_j=j;
				}
			}
		}
	}

	printf("%d\n", (right_i-left_i-1)*(right_j-left_i-1));

	return 0;
}